; Function Attrs: mustprogress uwtable
define noundef nonnull align 8 dereferenceable(64) ptr @_ZNK6icu_7725RelativeDateTimeFormatter16adjustForContextERNS_13UnicodeStringE(ptr noundef nonnull align 8 dereferenceable(272) %0, ptr noundef nonnull returned align 8 dereferenceable(64) %1) local_unnamed_addr #1 align 2 personality ptr @__gxx_personality_v0 {
  %3 = getelementptr inbounds nuw i8, ptr %0, i64 40
  %4 = load ptr, ptr %3, align 8, !tbaa !79
  %5 = icmp eq ptr %4, null
  br i1 %5, label %_ZN6icu_775MutexD2Ev.exit, label %6

6:                                                ; preds = %2
  %7 = getelementptr inbounds nuw i8, ptr %1, i64 8
  %8 = load i16, ptr %7, align 8, !tbaa !32
  %9 = icmp slt i16 %8, 0
  %10 = ashr i16 %8, 5
  %11 = sext i16 %10 to i32
  %12 = getelementptr inbounds nuw i8, ptr %1, i64 12
  %13 = load i32, ptr %12, align 4
  %14 = select i1 %9, i32 %13, i32 %11
  %15 = icmp eq i32 %14, 0
  br i1 %15, label %_ZN6icu_775MutexD2Ev.exit, label %16

16:                                               ; preds = %6
  %17 = tail call noundef i32 @_ZNK6icu_7713UnicodeString8char32AtEi(ptr noundef nonnull align 8 dereferenceable(64) %1, i32 noundef 0)
  %18 = tail call signext i8 @u_islower_77(i32 noundef %17)
  %.not = icmp eq i8 %18, 0
  br i1 %.not, label %_ZN6icu_775MutexD2Ev.exit, label %19

19:                                               ; preds = %16
  tail call void @umtx_lock_77(ptr noundef nonnull @_ZZNK6icu_7725RelativeDateTimeFormatter16adjustForContextERNS_13UnicodeStringEE13gBrkIterMutex)
  %20 = load ptr, ptr %3, align 8, !tbaa !79
  %21 = getelementptr inbounds nuw i8, ptr %20, i64 24
  %22 = load ptr, ptr %21, align 8, !tbaa !99
  %23 = getelementptr inbounds nuw i8, ptr %0, i64 48
  %24 = invoke noundef nonnull align 8 dereferenceable(64) ptr @_ZN6icu_7713UnicodeString7toTitleEPNS_13BreakIteratorERKNS_6LocaleEj(ptr noundef nonnull align 8 dereferenceable(64) %1, ptr noundef %22, ptr noundef nonnull align 8 dereferenceable(217) %23, i32 noundef 768)
          to label %25 unwind label %29

25:                                               ; preds = %19
  invoke void @umtx_unlock_77(ptr noundef nonnull @_ZZNK6icu_7725RelativeDateTimeFormatter16adjustForContextERNS_13UnicodeStringEE13gBrkIterMutex)
          to label %_ZN6icu_775MutexD2Ev.exit unwind label %26

26:                                               ; preds = %25
  %27 = landingpad { ptr, i32 }
          catch ptr null
  %28 = extractvalue { ptr, i32 } %27, 0
  tail call void @__clang_call_terminate(ptr %28) #22
  unreachable

29:                                               ; preds = %19
  %30 = landingpad { ptr, i32 }
          cleanup
  invoke void @umtx_unlock_77(ptr noundef nonnull @_ZZNK6icu_7725RelativeDateTimeFormatter16adjustForContextERNS_13UnicodeStringEE13gBrkIterMutex)
          to label %_ZN6icu_775MutexD2Ev.exit8 unwind label %31

31:                                               ; preds = %29
  %32 = landingpad { ptr, i32 }
          catch ptr null
  %33 = extractvalue { ptr, i32 } %32, 0
  tail call void @__clang_call_terminate(ptr %33) #22
  unreachable

_ZN6icu_775MutexD2Ev.exit8:                       ; preds = %29
  resume { ptr, i32 } %30

_ZN6icu_775MutexD2Ev.exit:                        ; preds = %25, %2, %6, %16
  ret ptr %1
}